; Function Attrs: mustprogress nounwind uwtable
define internal void @_ZN9grpc_core12_GLOBAL__N_112ErrorDestroyEPv(ptr noundef %p) #4 personality ptr @__gxx_personality_v0 {
entry:
  %isnull = icmp eq ptr %p, null
  br i1 %isnull, label %delete.end, label %delete.notnull

delete.notnull:                                   ; preds = %entry
  %0 = load i64, ptr %p, align 8
  %and.i.i.i = and i64 %0, 1
  %cmp.i.i.i = icmp eq i64 %and.i.i.i, 0
  br i1 %cmp.i.i.i, label %_ZN4absl12lts_202308026StatusD2Ev.exit, label %if.then.i.i

if.then.i.i:                                      ; preds = %delete.notnull
  invoke void @_ZN4absl12lts_202308026Status15UnrefNonInlinedEm(i64 noundef %0)
          to label %_ZN4absl12lts_202308026StatusD2Ev.exit unwind label %terminate.lpad.i

terminate.lpad.i:                                 ; preds = %if.then.i.i
  %1 = landingpad { ptr, i32 }
          catch ptr null
  %2 = extractvalue { ptr, i32 } %1, 0
  tail call void @__clang_call_terminate(ptr %2) #23
  unreachable

_ZN4absl12lts_202308026StatusD2Ev.exit:           ; preds = %delete.notnull, %if.then.i.i
  tail call void @_ZdlPv(ptr noundef nonnull %p) #24
  br label %delete.end

delete.end:                                       ; preds = %_ZN4absl12lts_202308026StatusD2Ev.exit, %entry
  ret void
}